target datalayout = "e-m:e-p270:32:32-p271:32:32-p272:64:64-i64:64-i128:128-f80:128-n8:16:32:64-S128"
target triple = "x86_64-pc-linux-gnu"

%struct.pointf_s = type { double, double }
%struct.Agobj_s = type { %struct.Agtag_s, ptr }
%struct.Agtag_s = type { i32, i64 }
%struct.Agnodeinfo_t = type { %struct.Agrec_s, ptr, ptr, %struct.pointf_s, double, double, %struct.boxf, double, double, double, double, double, ptr, ptr, ptr, i8, i8, i8, i8, i32, i32, i32, ptr, double, i8, i8, ptr, ptr, i8, i64, i8, i8, i8, ptr, ptr, %struct.elist, %struct.elist, %struct.elist, %struct.elist, %struct.elist, ptr, i32, ptr, i32, i32, double, %struct.elist, %struct.elist, %struct.elist, %struct.elist, ptr, i32, i32, i32, [1 x double] }
%struct.Agrec_s = type { ptr, ptr }
%struct.boxf = type { %struct.pointf_s, %struct.pointf_s }
%struct.elist = type { ptr, i64 }
%struct.Agedge_s = type { %struct.Agobj_s, %struct.dtlink_s_, %struct.dtlink_s_, ptr }
%struct.dtlink_s_ = type { ptr, %union.anon }
%union.anon = type { ptr }

; Function Attrs: nounwind uwtable
define internal double @conc_slope(ptr noundef %0) #0 {
  %2 = alloca ptr, align 8
  %3 = alloca double, align 8
  %4 = alloca double, align 8
  %5 = alloca double, align 8
  %6 = alloca double, align 8
  %7 = alloca i32, align 4
  %8 = alloca i32, align 4
  %9 = alloca %struct.pointf_s, align 8
  %10 = alloca ptr, align 8
  store ptr %0, ptr %2, align 8, !tbaa !30
  call void @llvm.lifetime.start.p0(i64 8, ptr %3) #12
  call void @llvm.lifetime.start.p0(i64 8, ptr %4) #12
  call void @llvm.lifetime.start.p0(i64 8, ptr %5) #12
  call void @llvm.lifetime.start.p0(i64 8, ptr %6) #12
  call void @llvm.lifetime.start.p0(i64 4, ptr %7) #12
  call void @llvm.lifetime.start.p0(i64 4, ptr %8) #12
  call void @llvm.lifetime.start.p0(i64 16, ptr %9) #12
  call void @llvm.lifetime.start.p0(i64 8, ptr %10) #12
  store double 0.000000e+00, ptr %4, align 8, !tbaa !16
  store double 0.000000e+00, ptr %3, align 8, !tbaa !16
  store i32 0, ptr %7, align 4, !tbaa !20
  br label %11

11:                                               ; preds = %45, %1
  %12 = load ptr, ptr %2, align 8, !tbaa !30
  %13 = getelementptr inbounds nuw %struct.Agobj_s, ptr %12, i32 0, i32 1
  %14 = load ptr, ptr %13, align 8, !tbaa !32
  %15 = getelementptr inbounds nuw %struct.Agnodeinfo_t, ptr %14, i32 0, i32 35
  %16 = getelementptr inbounds nuw %struct.elist, ptr %15, i32 0, i32 0
  %17 = load ptr, ptr %16, align 8, !tbaa !157
  %18 = load i32, ptr %7, align 4, !tbaa !20
  %19 = sext i32 %18 to i64
  %20 = getelementptr inbounds ptr, ptr %17, i64 %19
  %21 = load ptr, ptr %20, align 8, !tbaa !61
  store ptr %21, ptr %10, align 8, !tbaa !61
  %22 = icmp ne ptr %21, null
  br i1 %22, label %23, label %48

23:                                               ; preds = %11
  %24 = load ptr, ptr %10, align 8, !tbaa !61
  %25 = getelementptr inbounds nuw %struct.Agobj_s, ptr %24, i32 0, i32 0
  %26 = load i32, ptr %25, align 8
  %27 = and i32 %26, 3
  %28 = icmp eq i32 %27, 3
  br i1 %28, label %29, label %31

29:                                               ; preds = %23
  %30 = load ptr, ptr %10, align 8, !tbaa !61
  br label %34

31:                                               ; preds = %23
  %32 = load ptr, ptr %10, align 8, !tbaa !61
  %33 = getelementptr inbounds %struct.Agedge_s, ptr %32, i64 1
  br label %34

34:                                               ; preds = %31, %29
  %35 = phi ptr [ %30, %29 ], [ %33, %31 ]
  %36 = getelementptr inbounds nuw %struct.Agedge_s, ptr %35, i32 0, i32 3
  %37 = load ptr, ptr %36, align 8, !tbaa !88
  %38 = getelementptr inbounds nuw %struct.Agobj_s, ptr %37, i32 0, i32 1
  %39 = load ptr, ptr %38, align 8, !tbaa !32
  %40 = getelementptr inbounds nuw %struct.Agnodeinfo_t, ptr %39, i32 0, i32 3
  %41 = getelementptr inbounds nuw %struct.pointf_s, ptr %40, i32 0, i32 0
  %42 = load double, ptr %41, align 8, !tbaa !57
  %43 = load double, ptr %3, align 8, !tbaa !16
  %44 = fadd double %43, %42
  store double %44, ptr %3, align 8, !tbaa !16
  br label %45

45:                                               ; preds = %34
  %46 = load i32, ptr %7, align 4, !tbaa !20
  %47 = add nsw i32 %46, 1
  store i32 %47, ptr %7, align 4, !tbaa !20
  br label %11, !llvm.loop !158

48:                                               ; preds = %11
  store i32 0, ptr %8, align 4, !tbaa !20
  br label %49

49:                                               ; preds = %83, %48
  %50 = load ptr, ptr %2, align 8, !tbaa !30
  %51 = getelementptr inbounds nuw %struct.Agobj_s, ptr %50, i32 0, i32 1
  %52 = load ptr, ptr %51, align 8, !tbaa !32
  %53 = getelementptr inbounds nuw %struct.Agnodeinfo_t, ptr %52, i32 0, i32 36
  %54 = getelementptr inbounds nuw %struct.elist, ptr %53, i32 0, i32 0
  %55 = load ptr, ptr %54, align 8, !tbaa !159
  %56 = load i32, ptr %8, align 4, !tbaa !20
  %57 = sext i32 %56 to i64
  %58 = getelementptr inbounds ptr, ptr %55, i64 %57
  %59 = load ptr, ptr %58, align 8, !tbaa !61
  store ptr %59, ptr %10, align 8, !tbaa !61
  %60 = icmp ne ptr %59, null
  br i1 %60, label %61, label %86

61:                                               ; preds = %49
  %62 = load ptr, ptr %10, align 8, !tbaa !61
  %63 = getelementptr inbounds nuw %struct.Agobj_s, ptr %62, i32 0, i32 0
  %64 = load i32, ptr %63, align 8
  %65 = and i32 %64, 3
  %66 = icmp eq i32 %65, 2
  br i1 %66, label %67, label %69

67:                                               ; preds = %61
  %68 = load ptr, ptr %10, align 8, !tbaa !61
  br label %72

69:                                               ; preds = %61
  %70 = load ptr, ptr %10, align 8, !tbaa !61
  %71 = getelementptr inbounds %struct.Agedge_s, ptr %70, i64 -1
  br label %72

72:                                               ; preds = %69, %67
  %73 = phi ptr [ %68, %67 ], [ %71, %69 ]
  %74 = getelementptr inbounds nuw %struct.Agedge_s, ptr %73, i32 0, i32 3
  %75 = load ptr, ptr %74, align 8, !tbaa !88
  %76 = getelementptr inbounds nuw %struct.Agobj_s, ptr %75, i32 0, i32 1
  %77 = load ptr, ptr %76, align 8, !tbaa !32
  %78 = getelementptr inbounds nuw %struct.Agnodeinfo_t, ptr %77, i32 0, i32 3
  %79 = getelementptr inbounds nuw %struct.pointf_s, ptr %78, i32 0, i32 0
  %80 = load double, ptr %79, align 8, !tbaa !57
  %81 = load double, ptr %4, align 8, !tbaa !16
  %82 = fadd double %81, %80
  store double %82, ptr %4, align 8, !tbaa !16
  br label %83

83:                                               ; preds = %72
  %84 = load i32, ptr %8, align 4, !tbaa !20
  %85 = add nsw i32 %84, 1
  store i32 %85, ptr %8, align 4, !tbaa !20
  br label %49, !llvm.loop !160

86:                                               ; preds = %49
  %87 = load ptr, ptr %2, align 8, !tbaa !30
  %88 = getelementptr inbounds nuw %struct.Agobj_s, ptr %87, i32 0, i32 1
  %89 = load ptr, ptr %88, align 8, !tbaa !32
  %90 = getelementptr inbounds nuw %struct.Agnodeinfo_t, ptr %89, i32 0, i32 3
  %91 = getelementptr inbounds nuw %struct.pointf_s, ptr %90, i32 0, i32 0
  %92 = load double, ptr %91, align 8, !tbaa !57
  %93 = load double, ptr %3, align 8, !tbaa !16
  %94 = load i32, ptr %7, align 4, !tbaa !20
  %95 = sitofp i32 %94 to double
  %96 = fdiv double %93, %95
  %97 = fsub double %92, %96
  %98 = getelementptr inbounds nuw %struct.pointf_s, ptr %9, i32 0, i32 0
  store double %97, ptr %98, align 8, !tbaa !24
  %99 = load ptr, ptr %2, align 8, !tbaa !30
  %100 = getelementptr inbounds nuw %struct.Agobj_s, ptr %99, i32 0, i32 1
  %101 = load ptr, ptr %100, align 8, !tbaa !32
  %102 = getelementptr inbounds nuw %struct.Agnodeinfo_t, ptr %101, i32 0, i32 3
  %103 = getelementptr inbounds nuw %struct.pointf_s, ptr %102, i32 0, i32 1
  %104 = load double, ptr %103, align 8, !tbaa !58
  %105 = load ptr, ptr %2, align 8, !tbaa !30
  %106 = getelementptr inbounds nuw %struct.Agobj_s, ptr %105, i32 0, i32 1
  %107 = load ptr, ptr %106, align 8, !tbaa !32
  %108 = getelementptr inbounds nuw %struct.Agnodeinfo_t, ptr %107, i32 0, i32 35
  %109 = getelementptr inbounds nuw %struct.elist, ptr %108, i32 0, i32 0
  %110 = load ptr, ptr %109, align 8, !tbaa !157
  %111 = getelementptr inbounds ptr, ptr %110, i64 0
  %112 = load ptr, ptr %111, align 8, !tbaa !61
  %113 = getelementptr inbounds nuw %struct.Agobj_s, ptr %112, i32 0, i32 0
  %114 = load i32, ptr %113, align 8
  %115 = and i32 %114, 3
  %116 = icmp eq i32 %115, 3
  br i1 %116, label %117, label %126

117:                                              ; preds = %86
  %118 = load ptr, ptr %2, align 8, !tbaa !30
  %119 = getelementptr inbounds nuw %struct.Agobj_s, ptr %118, i32 0, i32 1
  %120 = load ptr, ptr %119, align 8, !tbaa !32
  %121 = getelementptr inbounds nuw %struct.Agnodeinfo_t, ptr %120, i32 0, i32 35
  %122 = getelementptr inbounds nuw %struct.elist, ptr %121, i32 0, i32 0
  %123 = load ptr, ptr %122, align 8, !tbaa !157
  %124 = getelementptr inbounds ptr, ptr %123, i64 0
  %125 = load ptr, ptr %124, align 8, !tbaa !61
  br label %136

126:                                              ; preds = %86
  %127 = load ptr, ptr %2, align 8, !tbaa !30
  %128 = getelementptr inbounds nuw %struct.Agobj_s, ptr %127, i32 0, i32 1
  %129 = load ptr, ptr %128, align 8, !tbaa !32
  %130 = getelementptr inbounds nuw %struct.Agnodeinfo_t, ptr %129, i32 0, i32 35
  %131 = getelementptr inbounds nuw %struct.elist, ptr %130, i32 0, i32 0
  %132 = load ptr, ptr %131, align 8, !tbaa !157
  %133 = getelementptr inbounds ptr, ptr %132, i64 0
  %134 = load ptr, ptr %133, align 8, !tbaa !61
  %135 = getelementptr inbounds %struct.Agedge_s, ptr %134, i64 1
  br label %136

136:                                              ; preds = %126, %117
  %137 = phi ptr [ %125, %117 ], [ %135, %126 ]
  %138 = getelementptr inbounds nuw %struct.Agedge_s, ptr %137, i32 0, i32 3
  %139 = load ptr, ptr %138, align 8, !tbaa !88
  %140 = getelementptr inbounds nuw %struct.Agobj_s, ptr %139, i32 0, i32 1
  %141 = load ptr, ptr %140, align 8, !tbaa !32
  %142 = getelementptr inbounds nuw %struct.Agnodeinfo_t, ptr %141, i32 0, i32 3
  %143 = getelementptr inbounds nuw %struct.pointf_s, ptr %142, i32 0, i32 1
  %144 = load double, ptr %143, align 8, !tbaa !58
  %145 = fsub double %104, %144
  %146 = getelementptr inbounds nuw %struct.pointf_s, ptr %9, i32 0, i32 1
  store double %145, ptr %146, align 8, !tbaa !26
  %147 = getelementptr inbounds nuw %struct.pointf_s, ptr %9, i32 0, i32 1
  %148 = load double, ptr %147, align 8, !tbaa !26
  %149 = getelementptr inbounds nuw %struct.pointf_s, ptr %9, i32 0, i32 0
  %150 = load double, ptr %149, align 8, !tbaa !24
  %151 = call double @atan2(double noundef %148, double noundef %150) #12, !tbaa !20
  store double %151, ptr %5, align 8, !tbaa !16
  %152 = load double, ptr %4, align 8, !tbaa !16
  %153 = load i32, ptr %8, align 4, !tbaa !20
  %154 = sitofp i32 %153 to double
  %155 = fdiv double %152, %154
  %156 = load ptr, ptr %2, align 8, !tbaa !30
  %157 = getelementptr inbounds nuw %struct.Agobj_s, ptr %156, i32 0, i32 1
  %158 = load ptr, ptr %157, align 8, !tbaa !32
  %159 = getelementptr inbounds nuw %struct.Agnodeinfo_t, ptr %158, i32 0, i32 3
  %160 = getelementptr inbounds nuw %struct.pointf_s, ptr %159, i32 0, i32 0
  %161 = load double, ptr %160, align 8, !tbaa !57
  %162 = fsub double %155, %161
  %163 = getelementptr inbounds nuw %struct.pointf_s, ptr %9, i32 0, i32 0
  store double %162, ptr %163, align 8, !tbaa !24
  %164 = load ptr, ptr %2, align 8, !tbaa !30
  %165 = getelementptr inbounds nuw %struct.Agobj_s, ptr %164, i32 0, i32 1
  %166 = load ptr, ptr %165, align 8, !tbaa !32
  %167 = getelementptr inbounds nuw %struct.Agnodeinfo_t, ptr %166, i32 0, i32 36
  %168 = getelementptr inbounds nuw %struct.elist, ptr %167, i32 0, i32 0
  %169 = load ptr, ptr %168, align 8, !tbaa !159
  %170 = getelementptr inbounds ptr, ptr %169, i64 0
  %171 = load ptr, ptr %170, align 8, !tbaa !61
  %172 = getelementptr inbounds nuw %struct.Agobj_s, ptr %171, i32 0, i32 0
  %173 = load i32, ptr %172, align 8
  %174 = and i32 %173, 3
  %175 = icmp eq i32 %174, 2
  br i1 %175, label %176, label %185

176:                                              ; preds = %136
  %177 = load ptr, ptr %2, align 8, !tbaa !30
  %178 = getelementptr inbounds nuw %struct.Agobj_s, ptr %177, i32 0, i32 1
  %179 = load ptr, ptr %178, align 8, !tbaa !32
  %180 = getelementptr inbounds nuw %struct.Agnodeinfo_t, ptr %179, i32 0, i32 36
  %181 = getelementptr inbounds nuw %struct.elist, ptr %180, i32 0, i32 0
  %182 = load ptr, ptr %181, align 8, !tbaa !159
  %183 = getelementptr inbounds ptr, ptr %182, i64 0
  %184 = load ptr, ptr %183, align 8, !tbaa !61
  br label %195

185:                                              ; preds = %136
  %186 = load ptr, ptr %2, align 8, !tbaa !30
  %187 = getelementptr inbounds nuw %struct.Agobj_s, ptr %186, i32 0, i32 1
  %188 = load ptr, ptr %187, align 8, !tbaa !32
  %189 = getelementptr inbounds nuw %struct.Agnodeinfo_t, ptr %188, i32 0, i32 36
  %190 = getelementptr inbounds nuw %struct.elist, ptr %189, i32 0, i32 0
  %191 = load ptr, ptr %190, align 8, !tbaa !159
  %192 = getelementptr inbounds ptr, ptr %191, i64 0
  %193 = load ptr, ptr %192, align 8, !tbaa !61
  %194 = getelementptr inbounds %struct.Agedge_s, ptr %193, i64 -1
  br label %195

195:                                              ; preds = %185, %176
  %196 = phi ptr [ %184, %176 ], [ %194, %185 ]
  %197 = getelementptr inbounds nuw %struct.Agedge_s, ptr %196, i32 0, i32 3
  %198 = load ptr, ptr %197, align 8, !tbaa !88
  %199 = getelementptr inbounds nuw %struct.Agobj_s, ptr %198, i32 0, i32 1
  %200 = load ptr, ptr %199, align 8, !tbaa !32
  %201 = getelementptr inbounds nuw %struct.Agnodeinfo_t, ptr %200, i32 0, i32 3
  %202 = getelementptr inbounds nuw %struct.pointf_s, ptr %201, i32 0, i32 1
  %203 = load double, ptr %202, align 8, !tbaa !58
  %204 = load ptr, ptr %2, align 8, !tbaa !30
  %205 = getelementptr inbounds nuw %struct.Agobj_s, ptr %204, i32 0, i32 1
  %206 = load ptr, ptr %205, align 8, !tbaa !32
  %207 = getelementptr inbounds nuw %struct.Agnodeinfo_t, ptr %206, i32 0, i32 3
  %208 = getelementptr inbounds nuw %struct.pointf_s, ptr %207, i32 0, i32 1
  %209 = load double, ptr %208, align 8, !tbaa !58
  %210 = fsub double %203, %209
  %211 = getelementptr inbounds nuw %struct.pointf_s, ptr %9, i32 0, i32 1
  store double %210, ptr %211, align 8, !tbaa !26
  %212 = getelementptr inbounds nuw %struct.pointf_s, ptr %9, i32 0, i32 1
  %213 = load double, ptr %212, align 8, !tbaa !26
  %214 = getelementptr inbounds nuw %struct.pointf_s, ptr %9, i32 0, i32 0
  %215 = load double, ptr %214, align 8, !tbaa !24
  %216 = call double @atan2(double noundef %213, double noundef %215) #12, !tbaa !20
  store double %216, ptr %6, align 8, !tbaa !16
  %217 = load double, ptr %5, align 8, !tbaa !16
  %218 = load double, ptr %6, align 8, !tbaa !16
  %219 = fadd double %217, %218
  %220 = fdiv double %219, 2.000000e+00
  call void @llvm.lifetime.end.p0(i64 8, ptr %10) #12
  call void @llvm.lifetime.end.p0(i64 16, ptr %9) #12
  call void @llvm.lifetime.end.p0(i64 4, ptr %8) #12
  call void @llvm.lifetime.end.p0(i64 4, ptr %7) #12
  call void @llvm.lifetime.end.p0(i64 8, ptr %6) #12
  call void @llvm.lifetime.end.p0(i64 8, ptr %5) #12
  call void @llvm.lifetime.end.p0(i64 8, ptr %4) #12
  call void @llvm.lifetime.end.p0(i64 8, ptr %3) #12
  ret double %220
}