; Function Attrs: nofree nounwind memory(readwrite, inaccessiblemem: write) uwtable
define internal fastcc double @conc_slope(ptr noundef readonly captures(none) %0) unnamed_addr #7 {
  %2 = getelementptr inbounds nuw i8, ptr %0, i64 16
  %3 = load ptr, ptr %2, align 8, !tbaa !9
  %4 = getelementptr inbounds nuw i8, ptr %3, i64 256
  %5 = load ptr, ptr %4, align 8, !tbaa !130
  %6 = load ptr, ptr %5, align 8, !tbaa !131
  %.not42 = icmp eq ptr %6, null
  br i1 %.not42, label %.preheader, label %.lr.ph

.preheader.loopexit:                              ; preds = %.lr.ph
  %7 = trunc nuw nsw i64 %indvars.iv.next to i32
  %8 = uitofp nneg i32 %7 to double
  br label %.preheader

.preheader:                                       ; preds = %.preheader.loopexit, %1
  %.032.lcssa = phi double [ 0.000000e+00, %1 ], [ %23, %.preheader.loopexit ]
  %.031.lcssa = phi double [ 0.000000e+00, %1 ], [ %8, %.preheader.loopexit ]
  %9 = getelementptr inbounds nuw i8, ptr %3, i64 272
  %10 = load ptr, ptr %9, align 8, !tbaa !132
  %11 = load ptr, ptr %10, align 8, !tbaa !131
  %.not3648 = icmp eq ptr %11, null
  br i1 %.not3648, label %._crit_edge, label %.lr.ph51

.lr.ph:                                           ; preds = %1, %.lr.ph
  %indvars.iv = phi i64 [ %indvars.iv.next, %.lr.ph ], [ 0, %1 ]
  %12 = phi ptr [ %25, %.lr.ph ], [ %6, %1 ]
  %.03243 = phi double [ %23, %.lr.ph ], [ 0.000000e+00, %1 ]
  %13 = load i32, ptr %12, align 8
  %14 = and i32 %13, 3
  %15 = icmp eq i32 %14, 3
  %.idx37 = select i1 %15, i64 0, i64 64
  %16 = getelementptr inbounds nuw i8, ptr %12, i64 %.idx37
  %17 = getelementptr inbounds nuw i8, ptr %16, i64 56
  %18 = load ptr, ptr %17, align 8, !tbaa !65
  %19 = getelementptr inbounds nuw i8, ptr %18, i64 16
  %20 = load ptr, ptr %19, align 8, !tbaa !9
  %21 = getelementptr inbounds nuw i8, ptr %20, i64 32
  %22 = load double, ptr %21, align 8, !tbaa !41
  %23 = fadd double %.03243, %22
  %indvars.iv.next = add nuw nsw i64 %indvars.iv, 1
  %24 = getelementptr inbounds nuw ptr, ptr %5, i64 %indvars.iv.next
  %25 = load ptr, ptr %24, align 8, !tbaa !131
  %.not = icmp eq ptr %25, null
  br i1 %.not, label %.preheader.loopexit, label %.lr.ph, !llvm.loop !133

.lr.ph51:                                         ; preds = %.preheader, %.lr.ph51
  %indvars.iv59 = phi i64 [ %indvars.iv.next60, %.lr.ph51 ], [ 0, %.preheader ]
  %26 = phi ptr [ %39, %.lr.ph51 ], [ %11, %.preheader ]
  %.03349 = phi double [ %37, %.lr.ph51 ], [ 0.000000e+00, %.preheader ]
  %27 = load i32, ptr %26, align 8
  %28 = and i32 %27, 3
  %29 = icmp eq i32 %28, 2
  %.idx = select i1 %29, i64 0, i64 -64
  %30 = getelementptr inbounds i8, ptr %26, i64 %.idx
  %31 = getelementptr inbounds nuw i8, ptr %30, i64 56
  %32 = load ptr, ptr %31, align 8, !tbaa !65
  %33 = getelementptr inbounds nuw i8, ptr %32, i64 16
  %34 = load ptr, ptr %33, align 8, !tbaa !9
  %35 = getelementptr inbounds nuw i8, ptr %34, i64 32
  %36 = load double, ptr %35, align 8, !tbaa !41
  %37 = fadd double %.03349, %36
  %indvars.iv.next60 = add nuw nsw i64 %indvars.iv59, 1
  %38 = getelementptr inbounds nuw ptr, ptr %10, i64 %indvars.iv.next60
  %39 = load ptr, ptr %38, align 8, !tbaa !131
  %.not36 = icmp eq ptr %39, null
  br i1 %.not36, label %._crit_edge.loopexit, label %.lr.ph51, !llvm.loop !134

._crit_edge.loopexit:                             ; preds = %.lr.ph51
  %40 = trunc nuw nsw i64 %indvars.iv.next60 to i32
  %41 = uitofp nneg i32 %40 to double
  %42 = fdiv double %37, %41
  br label %._crit_edge

._crit_edge:                                      ; preds = %._crit_edge.loopexit, %.preheader
  %43 = phi double [ 0x7FF8000000000000, %.preheader ], [ %42, %._crit_edge.loopexit ]
  %44 = getelementptr inbounds nuw i8, ptr %3, i64 32
  %45 = load double, ptr %44, align 8, !tbaa !41
  %46 = fdiv double %.032.lcssa, %.031.lcssa
  %47 = fsub double %45, %46
  %48 = getelementptr inbounds nuw i8, ptr %3, i64 40
  %49 = load double, ptr %48, align 8, !tbaa !43
  %50 = load i32, ptr %6, align 8
  %51 = and i32 %50, 3
  %52 = icmp eq i32 %51, 3
  %.idx38 = select i1 %52, i64 0, i64 64
  %53 = getelementptr inbounds nuw i8, ptr %6, i64 %.idx38
  %54 = getelementptr inbounds nuw i8, ptr %53, i64 56
  %55 = load ptr, ptr %54, align 8, !tbaa !65
  %56 = getelementptr inbounds nuw i8, ptr %55, i64 16
  %57 = load ptr, ptr %56, align 8, !tbaa !9
  %58 = getelementptr inbounds nuw i8, ptr %57, i64 40
  %59 = load double, ptr %58, align 8, !tbaa !43
  %60 = fsub double %49, %59
  %61 = tail call double @atan2(double noundef %60, double noundef %47) #17, !tbaa !86
  %62 = load i32, ptr %11, align 8
  %63 = and i32 %62, 3
  %64 = icmp eq i32 %63, 2
  %.idx39 = select i1 %64, i64 0, i64 -64
  %65 = getelementptr inbounds i8, ptr %11, i64 %.idx39
  %66 = fsub double %43, %45
  %67 = getelementptr inbounds nuw i8, ptr %65, i64 56
  %68 = load ptr, ptr %67, align 8, !tbaa !65
  %69 = getelementptr inbounds nuw i8, ptr %68, i64 16
  %70 = load ptr, ptr %69, align 8, !tbaa !9
  %71 = getelementptr inbounds nuw i8, ptr %70, i64 40
  %72 = load double, ptr %71, align 8, !tbaa !43
  %73 = fsub double %72, %49
  %74 = tail call double @atan2(double noundef %73, double noundef %66) #17, !tbaa !86
  %75 = fadd double %61, %74
  %76 = fmul double %75, 5.000000e-01
  ret double %76
}